target datalayout = "e-m:e-p270:32:32-p271:32:32-p272:64:64-i64:64-i128:128-f80:128-n8:16:32:64-S128"
target triple = "x86_64-pc-linux-gnu"

%struct.expert_field = type { i32, i32 }
%struct._packet_info = type { ptr, ptr, i32, i32, %struct.nstime_t, %struct.nstime_t, %struct.nstime_t, i8, ptr, ptr, ptr, ptr, %struct._address, %struct._address, %struct._address, %struct._address, %struct._address, %struct._address, i32, ptr, i8, [3 x i8], %struct.anon, i32, i32, i32, i32, ptr, i8, ptr, ptr, i16, i16, i32, i32, i16, i32, i32, ptr, ptr, ptr, i8, i8, i16, i16, i16, i32, i16, i16, ptr, ptr, ptr, ptr, ptr, i32, i32 }
%struct.nstime_t = type { i64, i32 }
%struct._address = type { i32, i32, ptr, ptr }
%struct.anon = type { i8, [3 x i8] }

@hf_bitcoin_magic = internal global i32 0, align 4
@hf_bitcoin_command = internal global i32 0, align 4
@hf_bitcoin_length = internal global i32 0, align 4
@hf_bitcoin_checksum = internal global i32 0, align 4
@ett_bitcoin = internal global i32 0, align 4
@ei_bitcoin_command_unknown = internal global %struct.expert_field zeroinitializer, align 4
@.str.248 = private unnamed_addr constant [8 x i8] c"Bitcoin\00", align 1
@proto_bitcoin = internal global i32 0, align 4
@bitcoin_command_table = internal global ptr null, align 8
@.str.318 = private unnamed_addr constant [3 x i8] c", \00", align 1
@.str.319 = private unnamed_addr constant [18 x i8] c"[unknown command]\00", align 1

; Function Attrs: null_pointer_is_valid sspstrong uwtable
define internal i32 @dissect_bitcoin_tcp_pdu(ptr noundef %0, ptr noundef %1, ptr noundef %2, ptr noundef %3) #0 {
  %5 = alloca ptr, align 8
  %6 = alloca ptr, align 8
  %7 = alloca ptr, align 8
  %8 = alloca ptr, align 8
  %9 = alloca ptr, align 8
  %10 = alloca i32, align 4
  %11 = alloca ptr, align 8
  %12 = alloca ptr, align 8
  %13 = alloca ptr, align 8
  store ptr %0, ptr %5, align 8
  store ptr %1, ptr %6, align 8
  store ptr %2, ptr %7, align 8
  store ptr %3, ptr %8, align 8
  call void @llvm.lifetime.start.p0(i64 8, ptr %9) #4
  call void @llvm.lifetime.start.p0(i64 4, ptr %10) #4
  store i32 0, ptr %10, align 4
  call void @llvm.lifetime.start.p0(i64 8, ptr %11) #4
  call void @llvm.lifetime.start.p0(i64 8, ptr %12) #4
  %14 = load ptr, ptr %6, align 8
  %15 = getelementptr inbounds nuw %struct._packet_info, ptr %14, i32 0, i32 1
  %16 = load ptr, ptr %15, align 8
  call void @col_set_str(ptr noundef %16, i32 noundef 35, ptr noundef @.str.248)
  %17 = load ptr, ptr %7, align 8
  %18 = load i32, ptr @proto_bitcoin, align 4
  %19 = load ptr, ptr %5, align 8
  %20 = call ptr @proto_tree_add_item(ptr noundef %17, i32 noundef %18, ptr noundef %19, i32 noundef 0, i32 noundef -1, i32 noundef 0)
  store ptr %20, ptr %9, align 8
  %21 = load ptr, ptr %9, align 8
  %22 = load i32, ptr @ett_bitcoin, align 4
  %23 = call ptr @proto_item_add_subtree(ptr noundef %21, i32 noundef %22)
  store ptr %23, ptr %7, align 8
  %24 = load ptr, ptr %7, align 8
  %25 = load i32, ptr @hf_bitcoin_magic, align 4
  %26 = load ptr, ptr %5, align 8
  %27 = call ptr @proto_tree_add_item(ptr noundef %24, i32 noundef %25, ptr noundef %26, i32 noundef 0, i32 noundef 4, i32 noundef 0)
  %28 = load ptr, ptr %7, align 8
  %29 = load i32, ptr @hf_bitcoin_command, align 4
  %30 = load ptr, ptr %5, align 8
  %31 = load ptr, ptr %6, align 8
  %32 = getelementptr inbounds nuw %struct._packet_info, ptr %31, i32 0, i32 51
  %33 = load ptr, ptr %32, align 8
  %34 = call ptr @proto_tree_add_item_ret_string(ptr noundef %28, i32 noundef %29, ptr noundef %30, i32 noundef 4, i32 noundef 12, i32 noundef 0, ptr noundef %33, ptr noundef %11)
  %35 = load ptr, ptr %7, align 8
  %36 = load i32, ptr @hf_bitcoin_length, align 4
  %37 = load ptr, ptr %5, align 8
  %38 = call ptr @proto_tree_add_item(ptr noundef %35, i32 noundef %36, ptr noundef %37, i32 noundef 16, i32 noundef 4, i32 noundef -2147483648)
  %39 = load ptr, ptr %7, align 8
  %40 = load ptr, ptr %5, align 8
  %41 = load i32, ptr @hf_bitcoin_checksum, align 4
  %42 = load ptr, ptr %6, align 8
  %43 = call ptr @proto_tree_add_checksum(ptr noundef %39, ptr noundef %40, i32 noundef 20, i32 noundef %41, i32 noundef -1, ptr noundef null, ptr noundef %42, i32 noundef 0, i32 noundef 0, i32 noundef 0)
  store i32 24, ptr %10, align 4
  %44 = load ptr, ptr @bitcoin_command_table, align 8
  %45 = load ptr, ptr %11, align 8
  %46 = call ptr @dissector_get_string_handle(ptr noundef %44, ptr noundef %45)
  store ptr %46, ptr %12, align 8
  %47 = load ptr, ptr %12, align 8
  %48 = icmp ne ptr %47, null
  br i1 %48, label %49, label %62

49:                                               ; preds = %4
  call void @llvm.lifetime.start.p0(i64 8, ptr %13) #4
  %50 = load ptr, ptr %6, align 8
  %51 = getelementptr inbounds nuw %struct._packet_info, ptr %50, i32 0, i32 1
  %52 = load ptr, ptr %51, align 8
  %53 = load ptr, ptr %11, align 8
  call void @col_append_sep_str(ptr noundef %52, i32 noundef 25, ptr noundef @.str.318, ptr noundef %53)
  %54 = load ptr, ptr %5, align 8
  %55 = load i32, ptr %10, align 4
  %56 = call ptr @tvb_new_subset_remaining(ptr noundef %54, i32 noundef %55)
  store ptr %56, ptr %13, align 8
  %57 = load ptr, ptr %12, align 8
  %58 = load ptr, ptr %13, align 8
  %59 = load ptr, ptr %6, align 8
  %60 = load ptr, ptr %7, align 8
  %61 = call i32 @call_dissector(ptr noundef %57, ptr noundef %58, ptr noundef %59, ptr noundef %60)
  call void @llvm.lifetime.end.p0(i64 8, ptr %13) #4
  br label %69

62:                                               ; preds = %4
  %63 = load ptr, ptr %6, align 8
  %64 = getelementptr inbounds nuw %struct._packet_info, ptr %63, i32 0, i32 1
  %65 = load ptr, ptr %64, align 8
  call void @col_append_sep_str(ptr noundef %65, i32 noundef 25, ptr noundef @.str.318, ptr noundef @.str.319)
  %66 = load ptr, ptr %6, align 8
  %67 = load ptr, ptr %9, align 8
  %68 = call ptr @expert_add_info(ptr noundef %66, ptr noundef %67, ptr noundef @ei_bitcoin_command_unknown)
  br label %69

69:                                               ; preds = %62, %49
  %70 = load ptr, ptr %5, align 8
  %71 = call i32 @tvb_reported_length(ptr noundef %70)
  call void @llvm.lifetime.end.p0(i64 8, ptr %12) #4
  call void @llvm.lifetime.end.p0(i64 8, ptr %11) #4
  call void @llvm.lifetime.end.p0(i64 4, ptr %10) #4
  call void @llvm.lifetime.end.p0(i64 8, ptr %9) #4
  ret i32 %71
}