; Function Attrs: null_pointer_is_valid sspstrong uwtable
define internal i32 @dissect_bitcoin_tcp_pdu(ptr noundef %0, ptr noundef %1, ptr noundef %2, ptr readnone captures(none) %3) #0 {
  %5 = alloca ptr, align 8
  call void @llvm.lifetime.start.p0(i64 8, ptr nonnull %5) #5
  %6 = getelementptr inbounds nuw i8, ptr %1, i64 8
  %7 = load ptr, ptr %6, align 8
  tail call void @col_set_str(ptr noundef %7, i32 noundef 35, ptr noundef nonnull @.str.248)
  %8 = load i32, ptr @proto_bitcoin, align 4
  %9 = tail call ptr @proto_tree_add_item(ptr noundef %2, i32 noundef %8, ptr noundef %0, i32 noundef 0, i32 noundef -1, i32 noundef 0)
  %10 = load i32, ptr @ett_bitcoin, align 4
  %11 = tail call ptr @proto_item_add_subtree(ptr noundef %9, i32 noundef %10)
  %12 = load i32, ptr @hf_bitcoin_magic, align 4
  %13 = tail call ptr @proto_tree_add_item(ptr noundef %11, i32 noundef %12, ptr noundef %0, i32 noundef 0, i32 noundef 4, i32 noundef 0)
  %14 = load i32, ptr @hf_bitcoin_command, align 4
  %15 = getelementptr inbounds nuw i8, ptr %1, i64 408
  %16 = load ptr, ptr %15, align 8
  %17 = call ptr @proto_tree_add_item_ret_string(ptr noundef %11, i32 noundef %14, ptr noundef %0, i32 noundef 4, i32 noundef 12, i32 noundef 0, ptr noundef %16, ptr noundef nonnull %5)
  %18 = load i32, ptr @hf_bitcoin_length, align 4
  %19 = call ptr @proto_tree_add_item(ptr noundef %11, i32 noundef %18, ptr noundef %0, i32 noundef 16, i32 noundef 4, i32 noundef -2147483648)
  %20 = load i32, ptr @hf_bitcoin_checksum, align 4
  %21 = call ptr @proto_tree_add_checksum(ptr noundef %11, ptr noundef %0, i32 noundef 20, i32 noundef %20, i32 noundef -1, ptr noundef null, ptr noundef %1, i32 noundef 0, i32 noundef 0, i32 noundef 0)
  %22 = load ptr, ptr @bitcoin_command_table, align 8
  %23 = load ptr, ptr %5, align 8
  %24 = call ptr @dissector_get_string_handle(ptr noundef %22, ptr noundef %23)
  %.not = icmp eq ptr %24, null
  %25 = load ptr, ptr %6, align 8
  br i1 %.not, label %30, label %26

26:                                               ; preds = %4
  %27 = load ptr, ptr %5, align 8
  call void @col_append_sep_str(ptr noundef %25, i32 noundef 25, ptr noundef nonnull @.str.318, ptr noundef %27)
  %28 = call ptr @tvb_new_subset_remaining(ptr noundef %0, i32 noundef 24)
  %29 = call i32 @call_dissector(ptr noundef nonnull %24, ptr noundef %28, ptr noundef %1, ptr noundef %11)
  br label %32

30:                                               ; preds = %4
  call void @col_append_sep_str(ptr noundef %25, i32 noundef 25, ptr noundef nonnull @.str.318, ptr noundef nonnull @.str.319)
  %31 = call ptr @expert_add_info(ptr noundef %1, ptr noundef %9, ptr noundef nonnull @ei_bitcoin_command_unknown)
  br label %32

32:                                               ; preds = %30, %26
  %33 = call i32 @tvb_reported_length(ptr noundef %0)
  call void @llvm.lifetime.end.p0(i64 8, ptr nonnull %5) #5
  ret i32 %33
}